; Function Attrs: mustprogress nofree norecurse nosync nounwind willreturn memory(argmem: read) uwtable
define dso_local noundef zeroext i1 @_ZNK4llvm11GlobalValue16isMaterializableEv(ptr nocapture noundef nonnull readonly align 8 dereferenceable(48) %0) local_unnamed_addr #0 align 2 {
  %2 = load i8, ptr %0, align 8
  %.not = icmp eq i8 %2, 0
  %3 = getelementptr inbounds nuw i8, ptr %0, i64 32
  %4 = load i32, ptr %3, align 8
  %5 = and i32 %4, 134217728
  %6 = icmp ne i32 %5, 0
  %.0 = select i1 %.not, i1 %6, i1 false
  ret i1 %.0
}